	.text
	.file	"VybModule"
	.globl	divide                          # -- Begin function divide
	.p2align	4, 0x90
	.type	divide,@function
divide:                                 # @divide
.Lfunc_begin0:
	.file	1 "/home/rick/Projects/Vyb/test/trap" "test_minimal_repro.vyb.ll"
	.loc	1 2 0                           # test_minimal_repro.vyb.ll:2:0
	.cfi_startproc
# %bb.0:                                # %entry
	subq	$24, %rsp
	.cfi_def_cfa_offset 32
.Ltmp0:
	.loc	1 2 1 prologue_end              # test_minimal_repro.vyb.ll:2:1
	movq	%rdi, 8(%rsp)
	movq	%rsi, 16(%rsp)
	testq	%rsi, %rsi
	je	.LBB0_1
# %bb.2:                                # %ifcont
	movq	8(%rsp), %rax
	cqto
	idivq	16(%rsp)
	xorl	%edx, %edx
	.loc	1 2 1 epilogue_begin is_stmt 0  # test_minimal_repro.vyb.ll:2:1
	addq	$24, %rsp
	.cfi_def_cfa_offset 8
	retq
.LBB0_1:                                # %then
	.cfi_def_cfa_offset 32
	movl	$16, %edi
	callq	malloc@PLT
	movq	$42, 8(%rax)
	movq	%rax, %rdx
	.loc	1 2 1 epilogue_begin            # test_minimal_repro.vyb.ll:2:1
	addq	$24, %rsp
	.cfi_def_cfa_offset 8
	retq
.Ltmp1:
.Lfunc_end0:
	.size	divide, .Lfunc_end0-divide
	.cfi_endproc
                                        # -- End function
	.globl	compute                         # -- Begin function compute
	.p2align	4, 0x90
	.type	compute,@function
compute:                                # @compute
.Lfunc_begin1:
	.loc	1 7 0 is_stmt 1                 # test_minimal_repro.vyb.ll:7:0
	.cfi_startproc
# %bb.0:                                # %entry
	subq	$24, %rsp
	.cfi_def_cfa_offset 32
.Ltmp2:
	.loc	1 7 1 prologue_end              # test_minimal_repro.vyb.ll:7:1
	movq	%rdi, (%rsp)
	movq	%rsi, 8(%rsp)
	callq	divide@PLT
	testq	%rdx, %rdx
	je	.LBB1_2
# %bb.1:                                # %call.error5
	.loc	1 7 1 epilogue_begin is_stmt 0  # test_minimal_repro.vyb.ll:7:1
	addq	$24, %rsp
	.cfi_def_cfa_offset 8
	retq
.LBB1_2:                                # %call.success
	.cfi_def_cfa_offset 32
	movq	%rax, 16(%rsp)
	addq	$10, %rax
	xorl	%edx, %edx
	.loc	1 7 1 epilogue_begin            # test_minimal_repro.vyb.ll:7:1
	addq	$24, %rsp
	.cfi_def_cfa_offset 8
	retq
.Ltmp3:
.Lfunc_end1:
	.size	compute, .Lfunc_end1-compute
	.cfi_endproc
                                        # -- End function
	.globl	main                            # -- Begin function main
	.p2align	4, 0x90
	.type	main,@function
main:                                   # @main
.Lfunc_begin2:
	.loc	1 12 0 is_stmt 1                # test_minimal_repro.vyb.ll:12:0
	.cfi_startproc
# %bb.0:                                # %entry
	subq	$24, %rsp
	.cfi_def_cfa_offset 32
.Ltmp4:
	.loc	1 12 1 prologue_end             # test_minimal_repro.vyb.ll:12:1
	movl	$10, %edi
	movl	$2, %esi
	callq	compute@PLT
	testq	%rdx, %rdx
	jne	.LBB2_6
# %bb.1:                                # %call.success
	movq	%rax, (%rsp)
	movl	$10, %edi
	xorl	%esi, %esi
	callq	compute@PLT
	testq	%rdx, %rdx
	je	.LBB2_4
# %bb.2:                                # %call.error6
	movq	%rdx, 8(%rsp)
	movabsq	$-3994496327427856726, %rax     # imm = 0xC890B2C1030F66AA
	cmpq	%rax, (%rdx)
	jne	.LBB2_5
# %bb.3:                                # %trap.handler0
	movq	%rdx, %rdi
	callq	free@PLT
	movq	$-1, %rax
.LBB2_4:                                # %block.continue
	movq	%rax, 16(%rsp)
	addq	(%rsp), %rax
	.loc	1 12 1 epilogue_begin is_stmt 0 # test_minimal_repro.vyb.ll:12:1
	addq	$24, %rsp
	.cfi_def_cfa_offset 8
	retq
.LBB2_6:                                # %call.error1
	.cfi_def_cfa_offset 32
	xorl	%edi, %edi
	callq	__vyb_runtime_untrapped_error@PLT
.LBB2_5:                                # %trap.unmatched
	movq	%rdx, %rdi
	callq	__vyb_runtime_untrapped_error@PLT
.Ltmp5:
.Lfunc_end2:
	.size	main, .Lfunc_end2-main
	.cfi_endproc
                                        # -- End function
	.section	".note.GNU-stack","",@progbits